target datalayout = "e-m:e-p270:32:32-p271:32:32-p272:64:64-i64:64-i128:128-f80:128-n8:16:32:64-S128"
target triple = "x86_64-pc-linux-gnu"

%struct._object = type { %union.anon, ptr }
%union.anon = type { i64 }
%struct.PyVarObject = type { %struct._object, i64 }
%struct.arraydescr = type { i8, i32, ptr, ptr, ptr, ptr, i32, i32 }
%struct.anon = type { i32, i32 }
%struct.PyListObject = type { %struct.PyVarObject, ptr, i64 }
%struct.arrayobject = type { %struct.PyVarObject, ptr, i64, ptr, ptr, i64 }

; Function Attrs: alwaysinline nounwind uwtable
define internal i32 @_Py_IsImmortal(ptr noundef %0) #4 {
  %2 = alloca ptr, align 8
  store ptr %0, ptr %2, align 8, !tbaa !3
  %3 = load ptr, ptr %2, align 8, !tbaa !3
  %4 = getelementptr inbounds nuw %struct._object, ptr %3, i32 0, i32 0
  %5 = getelementptr inbounds nuw %struct.anon, ptr %4, i32 0, i32 0
  %6 = load i32, ptr %5, align 8, !tbaa !36
  %7 = icmp slt i32 %6, 0
  %8 = zext i1 %7 to i32
  ret i32 %8
}

; Function Attrs: alwaysinline nounwind uwtable
define internal void @Py_DECREF(ptr noundef %0) #4 {
  %2 = alloca ptr, align 8
  store ptr %0, ptr %2, align 8, !tbaa !3
  %3 = load ptr, ptr %2, align 8, !tbaa !3
  %4 = call i32 @_Py_IsImmortal(ptr noundef %3)
  %5 = icmp ne i32 %4, 0
  br i1 %5, label %6, label %7

6:                                                ; preds = %1
  br label %16

7:                                                ; preds = %1
  %8 = load ptr, ptr %2, align 8, !tbaa !3
  %9 = getelementptr inbounds nuw %struct._object, ptr %8, i32 0, i32 0
  %10 = getelementptr inbounds nuw %struct.anon, ptr %9, i32 0, i32 0
  %11 = load i32, ptr %10, align 8, !tbaa !36
  %12 = add i32 %11, -1
  store i32 %12, ptr %10, align 8, !tbaa !36
  %13 = icmp eq i32 %12, 0
  br i1 %13, label %14, label %16

14:                                               ; preds = %7
  %15 = load ptr, ptr %2, align 8, !tbaa !3
  call void @_Py_Dealloc(ptr noundef %15)
  br label %16

16:                                               ; preds = %6, %14, %7
  ret void
}

; Function Attrs: inlinehint nounwind uwtable
define internal void @PyList_SET_ITEM(ptr noundef %0, i64 noundef %1, ptr noundef %2) #3 {
  %4 = alloca ptr, align 8
  %5 = alloca i64, align 8
  %6 = alloca ptr, align 8
  %7 = alloca ptr, align 8
  store ptr %0, ptr %4, align 8, !tbaa !3
  store i64 %1, ptr %5, align 8, !tbaa !21
  store ptr %2, ptr %6, align 8, !tbaa !3
  call void @llvm.lifetime.start.p0(i64 8, ptr %7) #8
  %8 = load ptr, ptr %4, align 8, !tbaa !3
  store ptr %8, ptr %7, align 8, !tbaa !8
  %9 = load ptr, ptr %6, align 8, !tbaa !3
  %10 = load ptr, ptr %7, align 8, !tbaa !8
  %11 = getelementptr inbounds nuw %struct.PyListObject, ptr %10, i32 0, i32 1
  %12 = load ptr, ptr %11, align 8, !tbaa !63
  %13 = load i64, ptr %5, align 8, !tbaa !21
  %14 = getelementptr ptr, ptr %12, i64 %13
  store ptr %9, ptr %14, align 8, !tbaa !3
  call void @llvm.lifetime.end.p0(i64 8, ptr %7) #8
  ret void
}

; Function Attrs: nounwind uwtable
define internal ptr @getarrayitem(ptr noundef %0, i64 noundef %1) #0 {
  %3 = alloca ptr, align 8
  %4 = alloca i64, align 8
  %5 = alloca ptr, align 8
  store ptr %0, ptr %3, align 8, !tbaa !3
  store i64 %1, ptr %4, align 8, !tbaa !21
  call void @llvm.lifetime.start.p0(i64 8, ptr %5) #8
  %6 = load ptr, ptr %3, align 8, !tbaa !3
  store ptr %6, ptr %5, align 8, !tbaa !68
  %7 = load ptr, ptr %5, align 8, !tbaa !68
  %8 = getelementptr inbounds nuw %struct.arrayobject, ptr %7, i32 0, i32 3
  %9 = load ptr, ptr %8, align 8, !tbaa !99
  %10 = getelementptr inbounds nuw %struct.arraydescr, ptr %9, i32 0, i32 2
  %11 = load ptr, ptr %10, align 8, !tbaa !124
  %12 = load ptr, ptr %5, align 8, !tbaa !68
  %13 = load i64, ptr %4, align 8, !tbaa !21
  %14 = call ptr %11(ptr noundef %12, i64 noundef %13)
  call void @llvm.lifetime.end.p0(i64 8, ptr %5) #8
  ret ptr %14
}

; Function Attrs: inlinehint nounwind uwtable
define internal i64 @Py_SIZE(ptr noundef %0) #3 {
  %2 = alloca ptr, align 8
  store ptr %0, ptr %2, align 8, !tbaa !3
  %3 = load ptr, ptr %2, align 8, !tbaa !3
  %4 = getelementptr inbounds nuw %struct.PyVarObject, ptr %3, i32 0, i32 1
  %5 = load i64, ptr %4, align 8, !tbaa !62
  ret i64 %5
}

; Function Attrs: nounwind uwtable
define internal ptr @array_array_tolist_impl(ptr noundef %0) #0 {
  %2 = alloca ptr, align 8
  %3 = alloca ptr, align 8
  %4 = alloca ptr, align 8
  %5 = alloca i64, align 8
  %6 = alloca i32, align 4
  %7 = alloca ptr, align 8
  store ptr %0, ptr %3, align 8, !tbaa !68
  call void @llvm.lifetime.start.p0(i64 8, ptr %4) #8
  %8 = load ptr, ptr %3, align 8, !tbaa !68
  %9 = call i64 @Py_SIZE(ptr noundef %8)
  %10 = call ptr @PyList_New(i64 noundef %9)
  store ptr %10, ptr %4, align 8, !tbaa !3
  call void @llvm.lifetime.start.p0(i64 8, ptr %5) #8
  %11 = load ptr, ptr %4, align 8, !tbaa !3
  %12 = icmp eq ptr %11, null
  br i1 %12, label %13, label %14

13:                                               ; preds = %1
  store ptr null, ptr %2, align 8
  store i32 1, ptr %6, align 4
  br label %41

14:                                               ; preds = %1
  store i64 0, ptr %5, align 8, !tbaa !21
  br label %15

15:                                               ; preds = %34, %14
  %16 = load i64, ptr %5, align 8, !tbaa !21
  %17 = load ptr, ptr %3, align 8, !tbaa !68
  %18 = call i64 @Py_SIZE(ptr noundef %17)
  %19 = icmp slt i64 %16, %18
  br i1 %19, label %20, label %37

20:                                               ; preds = %15
  call void @llvm.lifetime.start.p0(i64 8, ptr %7) #8
  %21 = load ptr, ptr %3, align 8, !tbaa !68
  %22 = load i64, ptr %5, align 8, !tbaa !21
  %23 = call ptr @getarrayitem(ptr noundef %21, i64 noundef %22)
  store ptr %23, ptr %7, align 8, !tbaa !3
  %24 = load ptr, ptr %7, align 8, !tbaa !3
  %25 = icmp eq ptr %24, null
  br i1 %25, label %26, label %27

26:                                               ; preds = %20
  store i32 5, ptr %6, align 4
  br label %31

27:                                               ; preds = %20
  %28 = load ptr, ptr %4, align 8, !tbaa !3
  %29 = load i64, ptr %5, align 8, !tbaa !21
  %30 = load ptr, ptr %7, align 8, !tbaa !3
  call void @PyList_SET_ITEM(ptr noundef %28, i64 noundef %29, ptr noundef %30)
  store i32 0, ptr %6, align 4
  br label %31

31:                                               ; preds = %26, %27
  call void @llvm.lifetime.end.p0(i64 8, ptr %7) #8
  %32 = load i32, ptr %6, align 4
  switch i32 %32, label %41 [
    i32 0, label %33
    i32 5, label %39
  ]

33:                                               ; preds = %31
  br label %34

34:                                               ; preds = %33
  %35 = load i64, ptr %5, align 8, !tbaa !21
  %36 = add i64 %35, 1
  store i64 %36, ptr %5, align 8, !tbaa !21
  br label %15, !llvm.loop !138

37:                                               ; preds = %15
  %38 = load ptr, ptr %4, align 8, !tbaa !3
  store ptr %38, ptr %2, align 8
  store i32 1, ptr %6, align 4
  br label %41

39:                                               ; preds = %31
  %40 = load ptr, ptr %4, align 8, !tbaa !3
  call void @Py_DECREF(ptr noundef %40)
  store ptr null, ptr %2, align 8
  store i32 1, ptr %6, align 4
  br label %41

41:                                               ; preds = %39, %37, %31, %13
  call void @llvm.lifetime.end.p0(i64 8, ptr %5) #8
  call void @llvm.lifetime.end.p0(i64 8, ptr %4) #8
  %42 = load ptr, ptr %2, align 8
  ret ptr %42
}

; Function Attrs: nounwind uwtable
define internal ptr @array_array_tolist(ptr noundef %0, ptr noundef %1) #0 {
  %3 = alloca ptr, align 8
  %4 = alloca ptr, align 8
  store ptr %0, ptr %3, align 8, !tbaa !3
  store ptr %1, ptr %4, align 8, !tbaa !3
  %5 = load ptr, ptr %3, align 8, !tbaa !3
  %6 = call ptr @array_array_tolist_impl(ptr noundef %5)
  ret ptr %6
}