; Function Attrs: nounwind uwtable
define internal ptr @array_array_tolist(ptr noundef %0, ptr readnone captures(none) %1) #0 {
  %3 = getelementptr i8, ptr %0, i64 16
  %.val18.i = load i64, ptr %3, align 8, !tbaa !40
  %4 = tail call ptr @PyList_New(i64 noundef %.val18.i) #11
  %5 = icmp eq ptr %4, null
  br i1 %5, label %array_array_tolist_impl.exit, label %.preheader.i

.preheader.i:                                     ; preds = %2
  %.val21.i = load i64, ptr %3, align 8, !tbaa !40
  %6 = icmp sgt i64 %.val21.i, 0
  br i1 %6, label %.lr.ph.i, label %array_array_tolist_impl.exit

.lr.ph.i:                                         ; preds = %.preheader.i
  %7 = getelementptr inbounds nuw i8, ptr %0, i64 40
  %8 = getelementptr i8, ptr %4, i64 24
  br label %9

9:                                                ; preds = %15, %.lr.ph.i
  %.01522.i = phi i64 [ 0, %.lr.ph.i ], [ %17, %15 ]
  %10 = load ptr, ptr %7, align 8, !tbaa !76
  %11 = getelementptr inbounds nuw i8, ptr %10, i64 8
  %12 = load ptr, ptr %11, align 8, !tbaa !97
  %13 = tail call ptr %12(ptr noundef nonnull %0, i64 noundef %.01522.i) #11
  %14 = icmp eq ptr %13, null
  br i1 %14, label %19, label %15

15:                                               ; preds = %9
  %.val19.i = load ptr, ptr %8, align 8, !tbaa !43
  %16 = getelementptr ptr, ptr %.val19.i, i64 %.01522.i
  store ptr %13, ptr %16, align 8, !tbaa !18
  %17 = add nuw nsw i64 %.01522.i, 1
  %.val.i = load i64, ptr %3, align 8, !tbaa !40
  %18 = icmp slt i64 %17, %.val.i
  br i1 %18, label %9, label %array_array_tolist_impl.exit, !llvm.loop !98

19:                                               ; preds = %9
  %20 = load i32, ptr %4, align 8, !tbaa !17
  %.not.i.i = icmp sgt i32 %20, -1
  br i1 %.not.i.i, label %21, label %array_array_tolist_impl.exit

21:                                               ; preds = %19
  %22 = add nsw i32 %20, -1
  store i32 %22, ptr %4, align 8, !tbaa !17
  %23 = icmp eq i32 %22, 0
  br i1 %23, label %24, label %array_array_tolist_impl.exit

24:                                               ; preds = %21
  tail call void @_Py_Dealloc(ptr noundef nonnull %4) #11
  br label %array_array_tolist_impl.exit

array_array_tolist_impl.exit:                     ; preds = %15, %2, %.preheader.i, %19, %21, %24
  %.0.i = phi ptr [ null, %2 ], [ null, %19 ], [ null, %21 ], [ null, %24 ], [ %4, %.preheader.i ], [ %4, %15 ]
  ret ptr %.0.i
}